target datalayout = "e-m:e-p270:32:32-p271:32:32-p272:64:64-i64:64-i128:128-f80:128-n8:16:32:64-S128"
target triple = "x86_64-pc-linux-gnu"

%struct._zend_executor_globals = type { %struct._zval_struct, %struct._zval_struct, [32 x ptr], ptr, ptr, %struct._zend_array, %struct._zend_array, ptr, i32, i8, %struct._zval_struct, i32, ptr, ptr, ptr, ptr, ptr, ptr, i64, ptr, ptr, i32, ptr, i32, i64, i32, i32, i32, i8, i8, %struct.zend_atomic_bool_s, %struct.zend_atomic_bool_s, ptr, i64, ptr, ptr, %struct._zend_array, %struct._zend_array, i32, i8, %struct._zval_struct, %struct._zval_struct, %struct._zend_stack, %struct._zend_stack, %struct._zend_stack, ptr, i32, i32, i64, ptr, ptr, ptr, %struct._zend_objects_store, %struct._zend_lazy_objects_store, ptr, ptr, ptr, [3 x %struct._zend_op], ptr, i8, i8, i64, i32, i32, ptr, [16 x %struct._HashTableIterator], ptr, %union._zend_function, %struct._zend_op, %struct._zend_array, i64, %struct.zend_get_gc_buffer, ptr, ptr, ptr, i64, i8, i32, ptr, ptr, i64, %struct._zend_call_stack, i64, i64, %struct._zend_strtod_state, [6 x ptr] }
%struct.zend_atomic_bool_s = type { i8 }
%struct._zval_struct = type { %union._zend_value, %union.anon, %union.anon.2 }
%union._zend_value = type { i64 }
%union.anon = type { i32 }
%union.anon.2 = type { i32 }
%struct._zend_stack = type { i32, i32, i32, ptr }
%struct._zend_objects_store = type { ptr, i32, i32, i32 }
%struct._zend_lazy_objects_store = type { %struct._zend_array }
%struct._HashTableIterator = type { ptr, i32, i32 }
%union._zend_function = type { %struct._zend_op_array }
%struct._zend_op_array = type { i8, [3 x i8], i32, ptr, ptr, ptr, i32, i32, ptr, ptr, ptr, ptr, i32, ptr, i32, i32, i32, ptr, ptr, ptr, ptr, ptr, i32, i32, ptr, ptr, ptr, i32, i32, i32, i32, ptr, ptr, [6 x ptr] }
%struct._zend_op = type { ptr, %union._znode_op, %union._znode_op, %union._znode_op, i32, i32, i8, i8, i8, i8 }
%union._znode_op = type { i32 }
%struct._zend_array = type { %struct._zend_refcounted_h, %union.anon.4, i32, %union.anon.6, i32, i32, i32, i32, i64, ptr }
%struct._zend_refcounted_h = type { i32, %union.anon.3 }
%union.anon.3 = type { i32 }
%union.anon.4 = type { i32 }
%union.anon.6 = type { ptr }
%struct.zend_get_gc_buffer = type { ptr, ptr, ptr }
%struct._zend_call_stack = type { ptr, i64 }
%struct._zend_strtod_state = type { [8 x ptr], ptr, ptr }
%struct._zend_execute_data = type { ptr, ptr, ptr, ptr, %struct._zval_struct, ptr, ptr, ptr, ptr }
%struct.anon.0 = type { i8, i8, %union.anon.1 }
%union.anon.1 = type { i16 }
%struct._zend_refcounted = type { %struct._zend_refcounted_h }

@executor_globals = external global %struct._zend_executor_globals, align 8

; Function Attrs: alwaysinline nounwind uwtable
define internal i32 @zend_gc_addref(ptr noundef %0) #2 {
  %2 = alloca ptr, align 8
  store ptr %0, ptr %2, align 8, !tbaa !143
  br label %3

3:                                                ; preds = %1
  br label %4

4:                                                ; preds = %3
  %5 = load ptr, ptr %2, align 8, !tbaa !143
  %6 = getelementptr inbounds nuw %struct._zend_refcounted_h, ptr %5, i32 0, i32 0
  %7 = load i32, ptr %6, align 4, !tbaa !145
  %8 = add i32 %7, 1
  store i32 %8, ptr %6, align 4, !tbaa !145
  ret i32 %8
}

; Function Attrs: alwaysinline nounwind uwtable
define internal i32 @zval_addref_p(ptr noundef %0) #2 {
  %2 = alloca ptr, align 8
  store ptr %0, ptr %2, align 8, !tbaa !8
  %3 = load ptr, ptr %2, align 8, !tbaa !8
  %4 = getelementptr inbounds nuw %struct._zval_struct, ptr %3, i32 0, i32 1
  %5 = getelementptr inbounds nuw %struct.anon.0, ptr %4, i32 0, i32 1
  %6 = load i8, ptr %5, align 1, !tbaa !44
  %7 = zext i8 %6 to i32
  %8 = icmp ne i32 %7, 0
  call void @llvm.assume(i1 %8)
  %9 = load ptr, ptr %2, align 8, !tbaa !8
  %10 = getelementptr inbounds nuw %struct._zval_struct, ptr %9, i32 0, i32 0
  %11 = load ptr, ptr %10, align 8, !tbaa !44
  %12 = getelementptr inbounds nuw %struct._zend_refcounted, ptr %11, i32 0, i32 0
  %13 = call i32 @zend_gc_addref(ptr noundef %12)
  ret i32 %13
}

; Function Attrs: nounwind uwtable
define dso_local i32 @zend_copy_parameters_array(i32 noundef %0, ptr noundef %1) #0 {
  %3 = alloca i32, align 4
  %4 = alloca i32, align 4
  %5 = alloca ptr, align 8
  %6 = alloca ptr, align 8
  %7 = alloca i32, align 4
  %8 = alloca i32, align 4
  %9 = alloca ptr, align 8
  store i32 %0, ptr %4, align 4, !tbaa !4
  store ptr %1, ptr %5, align 8, !tbaa !8
  call void @llvm.lifetime.start.p0(i64 8, ptr %6) #21
  call void @llvm.lifetime.start.p0(i64 4, ptr %7) #21
  %10 = load ptr, ptr getelementptr inbounds nuw (%struct._zend_executor_globals, ptr @executor_globals, i32 0, i32 19), align 8, !tbaa !11
  %11 = getelementptr inbounds %struct._zval_struct, ptr %10, i64 5
  store ptr %11, ptr %6, align 8, !tbaa !8
  %12 = load ptr, ptr getelementptr inbounds nuw (%struct._zend_executor_globals, ptr @executor_globals, i32 0, i32 19), align 8, !tbaa !11
  %13 = getelementptr inbounds nuw %struct._zend_execute_data, ptr %12, i32 0, i32 4
  %14 = getelementptr inbounds nuw %struct._zval_struct, ptr %13, i32 0, i32 2
  %15 = load i32, ptr %14, align 4, !tbaa !44
  store i32 %15, ptr %7, align 4, !tbaa !4
  %16 = load i32, ptr %4, align 4, !tbaa !4
  %17 = load i32, ptr %7, align 4, !tbaa !4
  %18 = icmp ugt i32 %16, %17
  br i1 %18, label %19, label %20

19:                                               ; preds = %2
  store i32 -1, ptr %3, align 4
  store i32 1, ptr %8, align 4
  br label %48

20:                                               ; preds = %2
  br label %21

21:                                               ; preds = %39, %20
  %22 = load i32, ptr %4, align 4, !tbaa !4
  %23 = add i32 %22, -1
  store i32 %23, ptr %4, align 4, !tbaa !4
  %24 = icmp ugt i32 %22, 0
  br i1 %24, label %25, label %47

25:                                               ; preds = %21
  br label %26

26:                                               ; preds = %25
  call void @llvm.lifetime.start.p0(i64 8, ptr %9) #21
  %27 = load ptr, ptr %6, align 8, !tbaa !8
  store ptr %27, ptr %9, align 8, !tbaa !8
  %28 = load ptr, ptr %9, align 8, !tbaa !8
  %29 = getelementptr inbounds nuw %struct._zval_struct, ptr %28, i32 0, i32 1
  %30 = getelementptr inbounds nuw %struct.anon.0, ptr %29, i32 0, i32 1
  %31 = load i8, ptr %30, align 1, !tbaa !44
  %32 = zext i8 %31 to i32
  %33 = icmp ne i32 %32, 0
  br i1 %33, label %34, label %37

34:                                               ; preds = %26
  %35 = load ptr, ptr %9, align 8, !tbaa !8
  %36 = call i32 @zval_addref_p(ptr noundef %35)
  br label %37

37:                                               ; preds = %34, %26
  call void @llvm.lifetime.end.p0(i64 8, ptr %9) #21
  br label %38

38:                                               ; preds = %37
  br label %39

39:                                               ; preds = %38
  %40 = load ptr, ptr %5, align 8, !tbaa !8
  %41 = getelementptr inbounds nuw %struct._zval_struct, ptr %40, i32 0, i32 0
  %42 = load ptr, ptr %41, align 8, !tbaa !44
  %43 = load ptr, ptr %6, align 8, !tbaa !8
  %44 = call ptr @zend_hash_next_index_insert_new(ptr noundef %42, ptr noundef %43)
  %45 = load ptr, ptr %6, align 8, !tbaa !8
  %46 = getelementptr inbounds nuw %struct._zval_struct, ptr %45, i32 1
  store ptr %46, ptr %6, align 8, !tbaa !8
  br label %21

47:                                               ; preds = %21
  store i32 0, ptr %3, align 4
  store i32 1, ptr %8, align 4
  br label %48

48:                                               ; preds = %47, %19
  call void @llvm.lifetime.end.p0(i64 4, ptr %7) #21
  call void @llvm.lifetime.end.p0(i64 8, ptr %6) #21
  %49 = load i32, ptr %3, align 4
  ret i32 %49
}