; Function Attrs: nounwind uwtable
define dso_local range(i32 -1, 1) i32 @zend_copy_parameters_array(i32 noundef %0, ptr noundef readonly captures(none) %1) local_unnamed_addr #2 {
  %3 = load ptr, ptr getelementptr inbounds nuw (i8, ptr @executor_globals, i64 512), align 8, !tbaa !4
  %4 = getelementptr inbounds nuw i8, ptr %3, i64 44
  %5 = load i32, ptr %4, align 4, !tbaa !42
  %6 = icmp ugt i32 %0, %5
  br i1 %6, label %.loopexit, label %.preheader

.preheader:                                       ; preds = %2
  %.not13 = icmp eq i32 %0, 0
  br i1 %.not13, label %.loopexit, label %.lr.ph.preheader

.lr.ph.preheader:                                 ; preds = %.preheader
  %7 = getelementptr inbounds nuw i8, ptr %3, i64 80
  br label %.lr.ph

.lr.ph:                                           ; preds = %.lr.ph.preheader, %15
  %.in = phi i32 [ %8, %15 ], [ %0, %.lr.ph.preheader ]
  %.01014 = phi ptr [ %18, %15 ], [ %7, %.lr.ph.preheader ]
  %8 = add i32 %.in, -1
  %9 = getelementptr inbounds nuw i8, ptr %.01014, i64 9
  %10 = load i8, ptr %9, align 1, !tbaa !42
  %.not12 = icmp eq i8 %10, 0
  br i1 %.not12, label %15, label %11

11:                                               ; preds = %.lr.ph
  %12 = load ptr, ptr %.01014, align 8, !tbaa !42
  %13 = load i32, ptr %12, align 4, !tbaa !43
  %14 = add i32 %13, 1
  store i32 %14, ptr %12, align 4, !tbaa !43
  br label %15

15:                                               ; preds = %11, %.lr.ph
  %16 = load ptr, ptr %1, align 8, !tbaa !42
  %17 = tail call ptr @zend_hash_next_index_insert_new(ptr noundef %16, ptr noundef nonnull %.01014) #34
  %18 = getelementptr inbounds nuw i8, ptr %.01014, i64 16
  %.not = icmp eq i32 %8, 0
  br i1 %.not, label %.loopexit, label %.lr.ph

.loopexit:                                        ; preds = %15, %.preheader, %2
  %.0 = phi i32 [ -1, %2 ], [ 0, %.preheader ], [ 0, %15 ]
  ret i32 %.0
}